(dp1
S'SNPs'
p2
ccollections
defaultdict
p3
(c__builtin__
dict
p4
tRp5
S'TotalIndels'
p6
(dp7
S'C.'
p8
ccopy_reg
_reconstructor
p9
(cwub.wrappers.dnadiff
PropertyWithPerc
p10
c__builtin__
tuple
p11
(F17
F7.3899999999999997
F17
F7.3899999999999997
ttRp12
sS'.A'
p13
g9
(g10
g11
(F32
F13.91
F40
F17.390000000000001
ttRp14
sS'.C'
p15
g9
(g10
g11
(F17
F7.3899999999999997
F17
F7.3899999999999997
ttRp16
sS'Number'
p17
g9
(cwub.wrappers.dnadiff
Property
p18
g11
(F230
F230
ttRp19
sS'A.'
p20
g9
(g10
g11
(F40
F17.390000000000001
F32
F13.91
ttRp21
sS'T.'
p22
g9
(g10
g11
(F49
F21.300000000000001
F43
F18.699999999999999
ttRp23
sS'G.'
p24
g9
(g10
g11
(F22
F9.5700000000000003
F10
F4.3499999999999996
ttRp25
sS'.G'
p26
g9
(g10
g11
(F10
F4.3499999999999996
F22
F9.5700000000000003
ttRp27
sS'.T'
p28
g9
(g10
g11
(F43
F18.699999999999999
F49
F21.300000000000001
ttRp29
ssS'TotalGSNPs'
p30
(dp31
S'AC'
p32
g9
(g10
g11
(F1
F7.1399999999999997
F0
F0
ttRp33
sS'GT'
p34
g9
(g10
g11
(F0
F0
F1
F7.1399999999999997
ttRp35
sS'AG'
p36
g9
(g10
g11
(F0
F0
F1
F7.1399999999999997
ttRp37
sS'CA'
p38
g9
(g10
g11
(F0
F0
F1
F7.1399999999999997
ttRp39
sS'CG'
p40
g9
(g10
g11
(F1
F7.1399999999999997
F1
F7.1399999999999997
ttRp41
sg17
g9
(g18
g11
(F14
F14
ttRp42
sS'GC'
p43
g9
(g10
g11
(F1
F7.1399999999999997
F1
F7.1399999999999997
ttRp44
sS'AT'
p45
g9
(g10
g11
(F2
F14.289999999999999
F1
F7.1399999999999997
ttRp46
sS'GA'
p47
g9
(g10
g11
(F1
F7.1399999999999997
F0
F0
ttRp48
sS'TG'
p49
g9
(g10
g11
(F1
F7.1399999999999997
F0
F0
ttRp50
sS'TA'
p51
g9
(g10
g11
(F1
F7.1399999999999997
F2
F14.289999999999999
ttRp52
sS'TC'
p53
g9
(g10
g11
(F5
F35.710000000000001
F1
F7.1399999999999997
ttRp54
sS'CT'
p55
g9
(g10
g11
(F1
F7.1399999999999997
F5
F35.710000000000001
ttRp56
ssS'TotalGIndels'
p57
(dp58
S'C.'
p59
g9
(g10
g11
(F5
F5.75
F4
F4.5999999999999996
ttRp60
sS'.A'
p61
g9
(g10
g11
(F15
F17.239999999999998
F17
F19.539999999999999
ttRp62
sS'.C'
p63
g9
(g10
g11
(F4
F4.5999999999999996
F5
F5.75
ttRp64
sg17
g9
(g18
g11
(F87
F87
ttRp65
sS'A.'
p66
g9
(g10
g11
(F17
F19.539999999999999
F15
F17.239999999999998
ttRp67
sS'T.'
p68
g9
(g10
g11
(F20
F22.989999999999998
F15
F17.239999999999998
ttRp69
sS'G.'
p70
g9
(g10
g11
(F8
F9.1999999999999993
F3
F3.4500000000000002
ttRp71
sS'.G'
p72
g9
(g10
g11
(F3
F3.4500000000000002
F8
F9.1999999999999993
ttRp73
sS'.T'
p74
g9
(g10
g11
(F15
F17.239999999999998
F20
F22.989999999999998
ttRp75
ssS'TotalSNPs'
p76
(dp77
S'AC'
p78
g9
(g10
g11
(F2
F3.5099999999999998
F4
F7.0199999999999996
ttRp79
sS'GT'
p80
g9
(g10
g11
(F3
F5.2599999999999998
F3
F5.2599999999999998
ttRp81
sS'AG'
p82
g9
(g10
g11
(F6
F10.529999999999999
F3
F5.2599999999999998
ttRp83
sS'CA'
p84
g9
(g10
g11
(F4
F7.0199999999999996
F2
F3.5099999999999998
ttRp85
sS'CG'
p86
g9
(g10
g11
(F2
F3.5099999999999998
F4
F7.0199999999999996
ttRp87
sg17
g9
(g18
g11
(F57
F57
ttRp88
sS'GC'
p89
g9
(g10
g11
(F4
F7.0199999999999996
F2
F3.5099999999999998
ttRp90
sS'AT'
p91
g9
(g10
g11
(F2
F3.5099999999999998
F4
F7.0199999999999996
ttRp92
sS'GA'
p93
g9
(g10
g11
(F3
F5.2599999999999998
F6
F10.529999999999999
ttRp94
sS'TG'
p95
g9
(g10
g11
(F3
F5.2599999999999998
F3
F5.2599999999999998
ttRp96
sS'TA'
p97
g9
(g10
g11
(F4
F7.0199999999999996
F2
F3.5099999999999998
ttRp98
sS'TC'
p99
g9
(g10
g11
(F15
F26.32
F9
F15.789999999999999
ttRp100
sS'CT'
p101
g9
(g10
g11
(F9
F15.789999999999999
F15
F26.32
ttRp102
sssS'Bases'
p103
(dp104
S'UnalignedBases'
p105
g9
(g10
g11
(F107989
F0.89000000000000001
F4
F0
ttRp106
sS'AlignedBases'
p107
g9
(g10
g11
(F12049116
F99.109999999999999
F11996025
F100
ttRp108
sS'TotalBases'
p109
g9
(g18
g11
(F12157105
F11996029
ttRp110
ssS'Alignments'
p111
g3
(g4
tRp112
S'1-to-1'
p113
(dp114
S'TotalLength'
p115
g9
(g18
g11
(F11996057
F11996032
ttRp116
sS'AvgIdentity'
p117
g9
(g18
g11
(F99.989999999999995
F99.989999999999995
ttRp118
sg17
g9
(g18
g11
(F18
F18
ttRp119
sS'AvgLength'
p120
g9
(g18
g11
(F666447.60999999999
F666446.21999999997
ttRp121
ssS'M-to-M'
p122
(dp123
S'TotalLength'
p124
g9
(g18
g11
(F12119891
F12119915
ttRp125
sS'AvgIdentity'
p126
g9
(g18
g11
(F99.950000000000003
F99.950000000000003
ttRp127
sg17
g9
(g18
g11
(F87
F87
ttRp128
sS'AvgLength'
p129
g9
(g18
g11
(F139309.09
F139309.37
ttRp130
sssS'Features'
p131
(dp132
S'Insertions'
p133
g9
(g18
g11
(F97
F2
ttRp134
sS'TandemInsAvg'
p135
g9
(g18
g11
(F0
F0
ttRp136
sS'Relocations'
p137
g9
(g18
g11
(F0
F0
ttRp138
sS'InsertionAvg'
p139
g9
(g18
g11
(F2389.9299999999998
F2
ttRp140
sS'Breakpoints'
p141
g9
(g18
g11
(F158
F138
ttRp142
sS'TandemInsSum'
p143
g9
(g18
g11
(F0
F0
ttRp144
sS'Inversions'
p145
g9
(g18
g11
(F0
F0
ttRp146
sS'Translocations'
p147
g9
(g18
g11
(F1
F0
ttRp148
sS'InsertionSum'
p149
g9
(g18
g11
(F231823
F4
ttRp150
sS'TandemIns'
p151
g9
(g18
g11
(F0
F0
ttRp152
ssS'Sequences'
p153
(dp154
S'AlignedSeqs'
p155
g9
(g10
g11
(F17
F100
F17
F100
ttRp156
sS'TotalSeqs'
p157
g9
(g18
g11
(F17
F17
ttRp158
sS'UnalignedSeqs'
p159
g9
(g10
g11
(F0
F0
F0
F0
ttRp160
ss.