(dp1
S'SNPs'
p2
ccollections
defaultdict
p3
(c__builtin__
dict
p4
tRp5
S'TotalIndels'
p6
(dp7
S'C.'
p8
ccopy_reg
_reconstructor
p9
(cwub.wrappers.dnadiff
PropertyWithPerc
p10
c__builtin__
tuple
p11
(F51
F2.7400000000000002
F179
F9.6199999999999992
ttRp12
sS'.A'
p13
g9
(g10
g11
(F337
F18.109999999999999
F371
F19.940000000000001
ttRp14
sS'.C'
p15
g9
(g10
g11
(F179
F9.6199999999999992
F51
F2.7400000000000002
ttRp16
sS'Number'
p17
g9
(cwub.wrappers.dnadiff
Property
p18
g11
(F1861
F1861
ttRp19
sS'A.'
p20
g9
(g10
g11
(F371
F19.940000000000001
F337
F18.109999999999999
ttRp21
sS'T.'
p22
g9
(g10
g11
(F369
F19.829999999999998
F340
F18.27
ttRp23
sS'G.'
p24
g9
(g10
g11
(F53
F2.8500000000000001
F161
F8.6500000000000004
ttRp25
sS'.G'
p26
g9
(g10
g11
(F161
F8.6500000000000004
F53
F2.8500000000000001
ttRp27
sS'.T'
p28
g9
(g10
g11
(F340
F18.27
F369
F19.829999999999998
ttRp29
ssS'TotalGSNPs'
p30
(dp31
S'AC'
p32
g9
(g10
g11
(F3
F6.6699999999999999
F3
F6.6699999999999999
ttRp33
sS'GT'
p34
g9
(g10
g11
(F1
F2.2200000000000002
F1
F2.2200000000000002
ttRp35
sS'AG'
p36
g9
(g10
g11
(F3
F6.6699999999999999
F4
F8.8900000000000006
ttRp37
sS'CA'
p38
g9
(g10
g11
(F3
F6.6699999999999999
F3
F6.6699999999999999
ttRp39
sS'CG'
p40
g9
(g10
g11
(F1
F2.2200000000000002
F2
F4.4400000000000004
ttRp41
sg17
g9
(g18
g11
(F45
F45
ttRp42
sS'GC'
p43
g9
(g10
g11
(F2
F4.4400000000000004
F1
F2.2200000000000002
ttRp44
sS'AT'
p45
g9
(g10
g11
(F10
F22.219999999999999
F7
F15.56
ttRp46
sS'GA'
p47
g9
(g10
g11
(F4
F8.8900000000000006
F3
F6.6699999999999999
ttRp48
sS'TG'
p49
g9
(g10
g11
(F1
F2.2200000000000002
F1
F2.2200000000000002
ttRp50
sS'TA'
p51
g9
(g10
g11
(F7
F15.56
F10
F22.219999999999999
ttRp52
sS'TC'
p53
g9
(g10
g11
(F6
F13.33
F4
F8.8900000000000006
ttRp54
sS'CT'
p55
g9
(g10
g11
(F4
F8.8900000000000006
F6
F13.33
ttRp56
ssS'TotalGIndels'
p57
(dp58
S'C.'
p59
g9
(g10
g11
(F31
F2.8399999999999999
F66
F6.04
ttRp60
sS'.A'
p61
g9
(g10
g11
(F131
F11.99
F318
F29.09
ttRp62
sS'.C'
p63
g9
(g10
g11
(F66
F6.04
F31
F2.8399999999999999
ttRp64
sg17
g9
(g18
g11
(F1093
F1093
ttRp65
sS'.G'
p66
g9
(g10
g11
(F73
F6.6799999999999997
F35
F3.2000000000000002
ttRp67
sS'T.'
p68
g9
(g10
g11
(F302
F27.629999999999999
F137
F12.529999999999999
ttRp69
sS'G.'
p70
g9
(g10
g11
(F35
F3.2000000000000002
F73
F6.6799999999999997
ttRp71
sS'A.'
p72
g9
(g10
g11
(F318
F29.09
F131
F11.99
ttRp73
sS'.T'
p74
g9
(g10
g11
(F137
F12.529999999999999
F302
F27.629999999999999
ttRp75
ssS'TotalSNPs'
p76
(dp77
S'AC'
p78
g9
(g10
g11
(F10
F8.4000000000000004
F12
F10.08
ttRp79
sS'GT'
p80
g9
(g10
g11
(F6
F5.04
F6
F5.04
ttRp81
sS'AG'
p82
g9
(g10
g11
(F9
F7.5599999999999996
F8
F6.7199999999999998
ttRp83
sS'CA'
p84
g9
(g10
g11
(F12
F10.08
F10
F8.4000000000000004
ttRp85
sS'CG'
p86
g9
(g10
g11
(F3
F2.52
F8
F6.7199999999999998
ttRp87
sg17
g9
(g18
g11
(F119
F119
ttRp88
sS'GC'
p89
g9
(g10
g11
(F8
F6.7199999999999998
F3
F2.52
ttRp90
sS'AT'
p91
g9
(g10
g11
(F12
F10.08
F12
F10.08
ttRp92
sS'GA'
p93
g9
(g10
g11
(F8
F6.7199999999999998
F9
F7.5599999999999996
ttRp94
sS'TG'
p95
g9
(g10
g11
(F6
F5.04
F6
F5.04
ttRp96
sS'CT'
p97
g9
(g10
g11
(F15
F12.609999999999999
F18
F15.130000000000001
ttRp98
sS'TC'
p99
g9
(g10
g11
(F18
F15.130000000000001
F15
F12.609999999999999
ttRp100
sS'TA'
p101
g9
(g10
g11
(F12
F10.08
F12
F10.08
ttRp102
sssS'Bases'
p103
(dp104
S'UnalignedBases'
p105
g9
(g10
g11
(F108355
F0.89000000000000001
F4
F0
ttRp106
sS'AlignedBases'
p107
g9
(g10
g11
(F12048750
F99.109999999999999
F11995851
F100
ttRp108
sS'TotalBases'
p109
g9
(g18
g11
(F12157105
F11995855
ttRp110
ssS'Alignments'
p111
g3
(g4
tRp112
S'1-to-1'
p113
(dp114
S'TotalLength'
p115
g9
(g18
g11
(F11995684
F11995858
ttRp116
sS'AvgIdentity'
p117
g9
(g18
g11
(F99.980000000000004
F99.980000000000004
ttRp118
sg17
g9
(g18
g11
(F19
F19
ttRp119
sS'AvgLength'
p120
g9
(g18
g11
(F631351.79000000004
F631360.94999999995
ttRp121
ssS'M-to-M'
p122
(dp123
S'TotalLength'
p124
g9
(g18
g11
(F12119451
F12119659
ttRp125
sS'AvgIdentity'
p126
g9
(g18
g11
(F99.950000000000003
F99.950000000000003
ttRp127
sg17
g9
(g18
g11
(F88
F88
ttRp128
sS'AvgLength'
p129
g9
(g18
g11
(F137721.03
F137723.39999999999
ttRp130
sssS'Features'
p131
(dp132
S'Insertions'
p133
g9
(g18
g11
(F99
F2
ttRp134
sS'TandemInsAvg'
p135
g9
(g18
g11
(F0
F0
ttRp136
sS'Relocations'
p137
g9
(g18
g11
(F0
F0
ttRp138
sS'InsertionAvg'
p139
g9
(g18
g11
(F2344.6700000000001
F2
ttRp140
sS'Breakpoints'
p141
g9
(g18
g11
(F161
F140
ttRp142
sS'TandemInsSum'
p143
g9
(g18
g11
(F0
F0
ttRp144
sS'Inversions'
p145
g9
(g18
g11
(F0
F0
ttRp146
sS'Translocations'
p147
g9
(g18
g11
(F1
F0
ttRp148
sS'InsertionSum'
p149
g9
(g18
g11
(F232122
F4
ttRp150
sS'TandemIns'
p151
g9
(g18
g11
(F0
F0
ttRp152
ssS'Sequences'
p153
(dp154
S'AlignedSeqs'
p155
g9
(g10
g11
(F17
F100
F17
F100
ttRp156
sS'TotalSeqs'
p157
g9
(g18
g11
(F17
F17
ttRp158
sS'UnalignedSeqs'
p159
g9
(g10
g11
(F0
F0
F0
F0
ttRp160
ss.