(dp1
S'SNPs'
p2
ccollections
defaultdict
p3
(c__builtin__
dict
p4
tRp5
S'TotalIndels'
p6
(dp7
S'C.'
p8
ccopy_reg
_reconstructor
p9
(cwub.wrappers.dnadiff
PropertyWithPerc
p10
c__builtin__
tuple
p11
(F55
F9.9800000000000004
F13
F2.3599999999999999
ttRp12
sS'.A'
p13
g9
(g10
g11
(F18
F3.27
F188
F34.119999999999997
ttRp14
sS'.C'
p15
g9
(g10
g11
(F13
F2.3599999999999999
F55
F9.9800000000000004
ttRp16
sS'Number'
p17
g9
(cwub.wrappers.dnadiff
Property
p18
g11
(F551
F551
ttRp19
sS'.G'
p20
g9
(g10
g11
(F5
F0.91000000000000003
F57
F10.34
ttRp21
sS'T.'
p22
g9
(g10
g11
(F198
F35.93
F17
F3.0899999999999999
ttRp23
sS'G.'
p24
g9
(g10
g11
(F57
F10.34
F5
F0.91000000000000003
ttRp25
sS'A.'
p26
g9
(g10
g11
(F188
F34.119999999999997
F18
F3.27
ttRp27
sS'.T'
p28
g9
(g10
g11
(F17
F3.0899999999999999
F198
F35.93
ttRp29
ssS'TotalGSNPs'
p30
(dp31
S'AC'
p32
g9
(g10
g11
(F1
F4
F1
F4
ttRp33
sS'GT'
p34
g9
(g10
g11
(F0
F0
F1
F4
ttRp35
sS'AG'
p36
g9
(g10
g11
(F6
F24
F3
F12
ttRp37
sS'CA'
p38
g9
(g10
g11
(F1
F4
F1
F4
ttRp39
sS'CG'
p40
g9
(g10
g11
(F0
F0
F0
F0
ttRp41
sg17
g9
(g18
g11
(F25
F25
ttRp42
sS'GC'
p43
g9
(g10
g11
(F0
F0
F0
F0
ttRp44
sS'AT'
p45
g9
(g10
g11
(F1
F4
F4
F16
ttRp46
sS'GA'
p47
g9
(g10
g11
(F3
F12
F6
F24
ttRp48
sS'TG'
p49
g9
(g10
g11
(F1
F4
F0
F0
ttRp50
sS'CT'
p51
g9
(g10
g11
(F2
F8
F6
F24
ttRp52
sS'TC'
p53
g9
(g10
g11
(F6
F24
F2
F8
ttRp54
sS'TA'
p55
g9
(g10
g11
(F4
F16
F1
F4
ttRp56
ssS'TotalGIndels'
p57
(dp58
S'C.'
p59
g9
(g10
g11
(F15
F10.710000000000001
F4
F2.8599999999999999
ttRp60
sS'.A'
p61
g9
(g10
g11
(F8
F5.71
F34
F24.289999999999999
ttRp62
sS'.C'
p63
g9
(g10
g11
(F4
F2.8599999999999999
F15
F10.710000000000001
ttRp64
sg17
g9
(g18
g11
(F140
F140
ttRp65
sS'A.'
p66
g9
(g10
g11
(F34
F24.289999999999999
F8
F5.71
ttRp67
sS'T.'
p68
g9
(g10
g11
(F48
F34.289999999999999
F11
F7.8600000000000003
ttRp69
sS'G.'
p70
g9
(g10
g11
(F19
F13.57
F1
F0.70999999999999996
ttRp71
sS'.G'
p72
g9
(g10
g11
(F1
F0.70999999999999996
F19
F13.57
ttRp73
sS'.T'
p74
g9
(g10
g11
(F11
F7.8600000000000003
F48
F34.289999999999999
ttRp75
ssS'TotalSNPs'
p76
(dp77
S'AC'
p78
g9
(g10
g11
(F1
F2.3300000000000001
F1
F2.3300000000000001
ttRp79
sS'GT'
p80
g9
(g10
g11
(F1
F2.3300000000000001
F1
F2.3300000000000001
ttRp81
sS'AG'
p82
g9
(g10
g11
(F10
F23.260000000000002
F4
F9.3000000000000007
ttRp83
sS'CA'
p84
g9
(g10
g11
(F1
F2.3300000000000001
F1
F2.3300000000000001
ttRp85
sS'CG'
p86
g9
(g10
g11
(F1
F2.3300000000000001
F0
F0
ttRp87
sg17
g9
(g18
g11
(F43
F43
ttRp88
sS'GC'
p89
g9
(g10
g11
(F0
F0
F1
F2.3300000000000001
ttRp90
sS'AT'
p91
g9
(g10
g11
(F2
F4.6500000000000004
F4
F9.3000000000000007
ttRp92
sS'GA'
p93
g9
(g10
g11
(F4
F9.3000000000000007
F10
F23.260000000000002
ttRp94
sS'TG'
p95
g9
(g10
g11
(F1
F2.3300000000000001
F1
F2.3300000000000001
ttRp96
sS'TA'
p97
g9
(g10
g11
(F4
F9.3000000000000007
F2
F4.6500000000000004
ttRp98
sS'TC'
p99
g9
(g10
g11
(F11
F25.579999999999998
F7
F16.280000000000001
ttRp100
sS'CT'
p101
g9
(g10
g11
(F7
F16.280000000000001
F11
F25.579999999999998
ttRp102
sssS'Bases'
p103
(dp104
S'UnalignedBases'
p105
g9
(g10
g11
(F107722
F0.89000000000000001
F3
F0
ttRp106
sS'AlignedBases'
p107
g9
(g10
g11
(F12049383
F99.109999999999999
F11996942
F100
ttRp108
sS'TotalBases'
p109
g9
(g18
g11
(F12157105
F11996945
ttRp110
ssS'Alignments'
p111
g3
(g4
tRp112
S'1-to-1'
p113
(dp114
S'TotalLength'
p115
g9
(g18
g11
(F12057474
F12057027
ttRp116
sS'AvgIdentity'
p117
g9
(g18
g11
(F99.989999999999995
F99.989999999999995
ttRp118
sg17
g9
(g18
g11
(F20
F20
ttRp119
sS'AvgLength'
p120
g9
(g18
g11
(F602873.69999999995
F602851.34999999998
ttRp121
ssS'M-to-M'
p122
(dp123
S'TotalLength'
p124
g9
(g18
g11
(F12177002
F12176647
ttRp125
sS'AvgIdentity'
p126
g9
(g18
g11
(F99.950000000000003
F99.950000000000003
ttRp127
sg17
g9
(g18
g11
(F88
F88
ttRp128
sS'AvgLength'
p129
g9
(g18
g11
(F138375.01999999999
F138370.98999999999
ttRp130
sssS'Features'
p131
(dp132
S'Insertions'
p133
g9
(g18
g11
(F97
F3
ttRp134
sS'TandemInsAvg'
p135
g9
(g18
g11
(F11
F6
ttRp136
sS'Relocations'
p137
g9
(g18
g11
(F0
F0
ttRp138
sS'InsertionAvg'
p139
g9
(g18
g11
(F2342.9000000000001
F5
ttRp140
sS'Breakpoints'
p141
g9
(g18
g11
(F159
F141
ttRp142
sS'TandemInsSum'
p143
g9
(g18
g11
(F11
F12
ttRp144
sS'Inversions'
p145
g9
(g18
g11
(F0
F0
ttRp146
sS'Translocations'
p147
g9
(g18
g11
(F1
F0
ttRp148
sS'InsertionSum'
p149
g9
(g18
g11
(F227261
F15
ttRp150
sS'TandemIns'
p151
g9
(g18
g11
(F1
F2
ttRp152
ssS'Sequences'
p153
(dp154
S'AlignedSeqs'
p155
g9
(g10
g11
(F17
F100
F17
F100
ttRp156
sS'TotalSeqs'
p157
g9
(g18
g11
(F17
F17
ttRp158
sS'UnalignedSeqs'
p159
g9
(g10
g11
(F0
F0
F0
F0
ttRp160
ss.