(dp1
S'SNPs'
p2
ccollections
defaultdict
p3
(c__builtin__
dict
p4
tRp5
S'TotalIndels'
p6
(dp7
S'C.'
p8
ccopy_reg
_reconstructor
p9
(cwub.wrappers.dnadiff
PropertyWithPerc
p10
c__builtin__
tuple
p11
(F187
F4.21
F9
F0.20000000000000001
ttRp12
sS'.A'
p13
g9
(g10
g11
(F22
F0.48999999999999999
F2032
F45.700000000000003
ttRp14
sS'.C'
p15
g9
(g10
g11
(F9
F0.20000000000000001
F187
F4.21
ttRp16
sS'Number'
p17
g9
(cwub.wrappers.dnadiff
Property
p18
g11
(F4446
F4446
ttRp19
sS'A.'
p20
g9
(g10
g11
(F2032
F45.700000000000003
F22
F0.48999999999999999
ttRp21
sS'T.'
p22
g9
(g10
g11
(F1955
F43.969999999999999
F20
F0.45000000000000001
ttRp23
sS'G.'
p24
g9
(g10
g11
(F218
F4.9000000000000004
F3
F0.070000000000000007
ttRp25
sS'.G'
p26
g9
(g10
g11
(F3
F0.070000000000000007
F218
F4.9000000000000004
ttRp27
sS'.T'
p28
g9
(g10
g11
(F20
F0.45000000000000001
F1955
F43.969999999999999
ttRp29
ssS'TotalGSNPs'
p30
(dp31
S'AC'
p32
g9
(g10
g11
(F1
F4.5499999999999998
F1
F4.5499999999999998
ttRp33
sS'GT'
p34
g9
(g10
g11
(F0
F0
F1
F4.5499999999999998
ttRp35
sS'AG'
p36
g9
(g10
g11
(F4
F18.18
F7
F31.82
ttRp37
sS'CA'
p38
g9
(g10
g11
(F1
F4.5499999999999998
F1
F4.5499999999999998
ttRp39
sS'CG'
p40
g9
(g10
g11
(F1
F4.5499999999999998
F2
F9.0899999999999999
ttRp41
sg17
g9
(g18
g11
(F22
F22
ttRp42
sS'GC'
p43
g9
(g10
g11
(F2
F9.0899999999999999
F1
F4.5499999999999998
ttRp44
sS'AT'
p45
g9
(g10
g11
(F0
F0
F0
F0
ttRp46
sS'GA'
p47
g9
(g10
g11
(F7
F31.82
F4
F18.18
ttRp48
sS'TG'
p49
g9
(g10
g11
(F1
F4.5499999999999998
F0
F0
ttRp50
sS'CT'
p51
g9
(g10
g11
(F2
F9.0899999999999999
F3
F13.640000000000001
ttRp52
sS'TC'
p53
g9
(g10
g11
(F3
F13.640000000000001
F2
F9.0899999999999999
ttRp54
sS'TA'
p55
g9
(g10
g11
(F0
F0
F0
F0
ttRp56
ssS'TotalGIndels'
p57
(dp58
S'C.'
p59
g9
(g10
g11
(F62
F2.1299999999999999
F5
F0.17000000000000001
ttRp60
sS'.A'
p61
g9
(g10
g11
(F5
F0.17000000000000001
F1428
F49.039999999999999
ttRp62
sS'.C'
p63
g9
(g10
g11
(F5
F0.17000000000000001
F62
F2.1299999999999999
ttRp64
sg17
g9
(g18
g11
(F2912
F2912
ttRp65
sS'.G'
p66
g9
(g10
g11
(F0
F0
F73
F2.5099999999999998
ttRp67
sS'T.'
p68
g9
(g10
g11
(F1333
F45.780000000000001
F6
F0.20999999999999999
ttRp69
sS'G.'
p70
g9
(g10
g11
(F73
F2.5099999999999998
F0
F0
ttRp71
sS'A.'
p72
g9
(g10
g11
(F1428
F49.039999999999999
F5
F0.17000000000000001
ttRp73
sS'.T'
p74
g9
(g10
g11
(F6
F0.20999999999999999
F1333
F45.780000000000001
ttRp75
ssS'TotalSNPs'
p76
(dp77
S'AC'
p78
g9
(g10
g11
(F2
F5
F2
F5
ttRp79
sS'GT'
p80
g9
(g10
g11
(F2
F5
F3
F7.5
ttRp81
sS'AG'
p82
g9
(g10
g11
(F4
F10
F10
F25
ttRp83
sS'CA'
p84
g9
(g10
g11
(F2
F5
F2
F5
ttRp85
sS'CG'
p86
g9
(g10
g11
(F1
F2.5
F3
F7.5
ttRp87
sg17
g9
(g18
g11
(F40
F40
ttRp88
sS'GC'
p89
g9
(g10
g11
(F3
F7.5
F1
F2.5
ttRp90
sS'AT'
p91
g9
(g10
g11
(F1
F2.5
F0
F0
ttRp92
sS'GA'
p93
g9
(g10
g11
(F10
F25
F4
F10
ttRp94
sS'TG'
p95
g9
(g10
g11
(F3
F7.5
F2
F5
ttRp96
sS'CT'
p97
g9
(g10
g11
(F5
F12.5
F7
F17.5
ttRp98
sS'TC'
p99
g9
(g10
g11
(F7
F17.5
F5
F12.5
ttRp100
sS'TA'
p101
g9
(g10
g11
(F0
F0
F1
F2.5
ttRp102
sssS'Bases'
p103
(dp104
S'UnalignedBases'
p105
g9
(g10
g11
(F107725
F0.89000000000000001
F3
F0
ttRp106
sS'AlignedBases'
p107
g9
(g10
g11
(F12049380
F99.109999999999999
F11993039
F100
ttRp108
sS'TotalBases'
p109
g9
(g18
g11
(F12157105
F11993042
ttRp110
ssS'Alignments'
p111
g3
(g4
tRp112
S'1-to-1'
p113
(dp114
S'TotalLength'
p115
g9
(g18
g11
(F12017436
F12013076
ttRp116
sS'AvgIdentity'
p117
g9
(g18
g11
(F99.959999999999994
F99.959999999999994
ttRp118
sg17
g9
(g18
g11
(F18
F18
ttRp119
sS'AvgLength'
p120
g9
(g18
g11
(F667635.32999999996
F667393.10999999999
ttRp121
ssS'M-to-M'
p122
(dp123
S'TotalLength'
p124
g9
(g18
g11
(F12136680
F12132395
ttRp125
sS'AvgIdentity'
p126
g9
(g18
g11
(F99.930000000000007
F99.930000000000007
ttRp127
sg17
g9
(g18
g11
(F84
F84
ttRp128
sS'AvgLength'
p129
g9
(g18
g11
(F144484.29000000001
F144433.26999999999
ttRp130
sssS'Features'
p131
(dp132
S'Insertions'
p133
g9
(g18
g11
(F97
F2
ttRp134
sS'TandemInsAvg'
p135
g9
(g18
g11
(F0
F11
ttRp136
sS'Relocations'
p137
g9
(g18
g11
(F0
F0
ttRp138
sS'InsertionAvg'
p139
g9
(g18
g11
(F2339.8899999999999
F7
ttRp140
sS'Breakpoints'
p141
g9
(g18
g11
(F155
F133
ttRp142
sS'TandemInsSum'
p143
g9
(g18
g11
(F0
F11
ttRp144
sS'Inversions'
p145
g9
(g18
g11
(F0
F0
ttRp146
sS'Translocations'
p147
g9
(g18
g11
(F1
F0
ttRp148
sS'InsertionSum'
p149
g9
(g18
g11
(F226969
F14
ttRp150
sS'TandemIns'
p151
g9
(g18
g11
(F0
F1
ttRp152
ssS'Sequences'
p153
(dp154
S'AlignedSeqs'
p155
g9
(g10
g11
(F17
F100
F17
F100
ttRp156
sS'TotalSeqs'
p157
g9
(g18
g11
(F17
F17
ttRp158
sS'UnalignedSeqs'
p159
g9
(g10
g11
(F0
F0
F0
F0
ttRp160
ss.