(dp1
S'Coverage'
p2
cnumpy.core.multiarray
scalar
p3
(cnumpy
dtype
p4
(S'f8'
I0
I1
tRp5
(I3
S'<'
NNNI-1
I-1
I0
tbS'o\xec\xe6\xed\xcc*\xed?'
tRp6
sS'Accuracy'
p7
g3
(g5
S'\xe45\x87\x19\xee\xfc\xef?'
tRp8
s.