(dp1
S'Coverage'
p2
cnumpy.core.multiarray
scalar
p3
(cnumpy
dtype
p4
(S'f8'
I0
I1
tRp5
(I3
S'<'
NNNI-1
I-1
I0
tbS'\x1d\xa9\x8ai\x95\xd4\xeb?'
tRp6
sS'Accuracy'
p7
g3
(g5
S'\xc7\xbd\x81R\xa4\xfe\xef?'
tRp8
s.