(dp1
S'Coverage'
p2
cnumpy.core.multiarray
scalar
p3
(cnumpy
dtype
p4
(S'f8'
I0
I1
tRp5
(I3
S'<'
NNNI-1
I-1
I0
tbS'\xe8\x18XlG&\xed?'
tRp6
sS'Accuracy'
p7
g3
(g5
S'\x8e\x18\x99\xa0\xcd\xff\xef?'
tRp8
s.